; Function Attrs: mustprogress nounwind uwtable
define hidden void @_ZN12LIRGenerator11do_TypeCastEP8TypeCast(ptr noundef nonnull align 8 dereferenceable(232) %0, ptr nocapture noundef %1) unnamed_addr #3 align 2 {
  %3 = alloca %class.LIRItem, align 8
  %4 = getelementptr inbounds i8, ptr %1, i64 104
  %5 = load ptr, ptr %4, align 8
  %6 = getelementptr inbounds i8, ptr %3, i64 16
  %7 = getelementptr inbounds i8, ptr %3, i64 24
  store i8 0, ptr %7, align 8
  %8 = getelementptr inbounds i8, ptr %3, i64 8
  store ptr %0, ptr %8, align 8
  store ptr %5, ptr %3, align 8
  %9 = load i64, ptr @_ZN11LIR_OprFact10illegalOprE, align 8
  store i64 %9, ptr %6, align 8
  %.not.i.i = icmp eq ptr %5, null
  br i1 %.not.i.i, label %_ZN7LIRItemC2EP11InstructionP12LIRGenerator.exit, label %10

10:                                               ; preds = %2
  %11 = getelementptr inbounds i8, ptr %0, i64 16
  %12 = load ptr, ptr %11, align 8
  %13 = getelementptr inbounds i8, ptr %12, i64 696
  %14 = load ptr, ptr %13, align 8
  store ptr %5, ptr %13, align 8
  %15 = getelementptr inbounds i8, ptr %5, i64 16
  %16 = load i32, ptr %15, align 8
  %.not.i.i.i = icmp eq i32 %16, 0
  br i1 %.not.i.i.i, label %23, label %17

17:                                               ; preds = %10
  %18 = load ptr, ptr %5, align 8
  %19 = getelementptr inbounds i8, ptr %18, i64 16
  %20 = load ptr, ptr %19, align 8
  %21 = tail call noundef ptr %20(ptr noundef nonnull align 8 dereferenceable(96) %5) #17
  %22 = icmp eq ptr %21, null
  br i1 %22, label %_ZN12LIRGenerator4walkEP11Instruction.exit.i.i, label %23

23:                                               ; preds = %17, %10
  %24 = getelementptr inbounds i8, ptr %5, i64 48
  %.sroa.0.0.copyload.i.i.i.i = load i64, ptr %24, align 8
  %25 = and i64 %.sroa.0.0.copyload.i.i.i.i, 7
  %.not7.i.i.i = icmp eq i64 %25, 7
  br i1 %.not7.i.i.i, label %26, label %_ZN12LIRGenerator4walkEP11Instruction.exit.i.i

26:                                               ; preds = %23
  %27 = load ptr, ptr %5, align 8
  %28 = getelementptr inbounds i8, ptr %27, i64 416
  %29 = load ptr, ptr %28, align 8
  tail call void %29(ptr noundef nonnull align 8 dereferenceable(96) %5, ptr noundef nonnull %0) #17
  br label %_ZN12LIRGenerator4walkEP11Instruction.exit.i.i

_ZN12LIRGenerator4walkEP11Instruction.exit.i.i:   ; preds = %26, %23, %17
  store ptr %14, ptr %13, align 8
  %30 = getelementptr inbounds i8, ptr %5, i64 48
  %.sroa.0.0.copyload.i.i.i = load i64, ptr %30, align 8
  store i64 %.sroa.0.0.copyload.i.i.i, ptr %6, align 8
  %.pre.i.i = load i64, ptr @_ZN11LIR_OprFact10illegalOprE, align 8
  br label %_ZN7LIRItemC2EP11InstructionP12LIRGenerator.exit

_ZN7LIRItemC2EP11InstructionP12LIRGenerator.exit: ; preds = %2, %_ZN12LIRGenerator4walkEP11Instruction.exit.i.i
  %31 = phi i64 [ %.pre.i.i, %_ZN12LIRGenerator4walkEP11Instruction.exit.i.i ], [ %9, %2 ]
  %32 = getelementptr inbounds i8, ptr %3, i64 32
  store i64 %31, ptr %32, align 8
  call void @_ZN7LIRItem9load_itemEv(ptr noundef nonnull align 8 dereferenceable(40) %3)
  %33 = call i64 @_ZN7LIRItem6resultEv(ptr noundef nonnull align 8 dereferenceable(40) %3)
  %34 = getelementptr inbounds i8, ptr %1, i64 48
  store i64 %33, ptr %34, align 8
  ret void
}